target datalayout = "e-m:e-p270:32:32-p271:32:32-p272:64:64-i64:64-i128:128-f80:128-n8:16:32:64-S128"
target triple = "x86_64-pc-linux-gnu"

%struct.FunctionCallInfoBaseData = type { ptr, ptr, ptr, i32, i8, i16, [0 x %struct.NullableDatum] }
%struct.NullableDatum = type { i64, i8 }
%struct.TimeTzADT = type { i64, i32 }
%struct.Interval = type { i64, i32, i32 }

@.str.3 = private unnamed_addr constant [7 x i8] c"date.c\00", align 1
@.str.29 = private unnamed_addr constant [39 x i8] c"interval time zone \22%s\22 must be finite\00", align 1
@__func__.timetz_izone = private unnamed_addr constant [13 x i8] c"timetz_izone\00", align 1
@.str.30 = private unnamed_addr constant [56 x i8] c"interval time zone \22%s\22 must not include months or days\00", align 1

; Function Attrs: inlinehint nounwind uwtable
define internal ptr @DatumGetPointer(i64 noundef %0) #4 {
  %2 = alloca i64, align 8
  store i64 %0, ptr %2, align 8
  %3 = load i64, ptr %2, align 8
  %4 = inttoptr i64 %3 to ptr
  ret ptr %4
}

; Function Attrs: inlinehint nounwind uwtable
define internal i64 @TimeTzADTPGetDatum(ptr noundef %0) #4 {
  %2 = alloca ptr, align 8
  store ptr %0, ptr %2, align 8
  %3 = load ptr, ptr %2, align 8
  %4 = call i64 @PointerGetDatum(ptr noundef %3)
  ret i64 %4
}

; Function Attrs: inlinehint nounwind uwtable
define internal ptr @DatumGetCString(i64 noundef %0) #4 {
  %2 = alloca i64, align 8
  store i64 %0, ptr %2, align 8
  %3 = load i64, ptr %2, align 8
  %4 = call ptr @DatumGetPointer(i64 noundef %3)
  ret ptr %4
}

; Function Attrs: inlinehint nounwind uwtable
define internal i64 @PointerGetDatum(ptr noundef %0) #4 {
  %2 = alloca ptr, align 8
  store ptr %0, ptr %2, align 8
  %3 = load ptr, ptr %2, align 8
  %4 = ptrtoint ptr %3 to i64
  ret i64 %4
}

; Function Attrs: inlinehint nounwind uwtable
define internal ptr @DatumGetTimeTzADTP(i64 noundef %0) #4 {
  %2 = alloca i64, align 8
  store i64 %0, ptr %2, align 8
  %3 = load i64, ptr %2, align 8
  %4 = call ptr @DatumGetPointer(i64 noundef %3)
  ret ptr %4
}

; Function Attrs: inlinehint nounwind uwtable
define internal ptr @DatumGetIntervalP(i64 noundef %0) #4 {
  %2 = alloca i64, align 8
  store i64 %0, ptr %2, align 8
  %3 = load i64, ptr %2, align 8
  %4 = call ptr @DatumGetPointer(i64 noundef %3)
  ret ptr %4
}

; Function Attrs: nounwind uwtable
define dso_local i64 @timetz_izone(ptr noundef %0) #0 {
  %2 = alloca ptr, align 8
  %3 = alloca ptr, align 8
  %4 = alloca ptr, align 8
  %5 = alloca ptr, align 8
  %6 = alloca i32, align 4
  store ptr %0, ptr %2, align 8
  call void @llvm.lifetime.start.p0(i64 8, ptr %3) #9
  %7 = load ptr, ptr %2, align 8
  %8 = getelementptr inbounds nuw %struct.FunctionCallInfoBaseData, ptr %7, i32 0, i32 6
  %9 = getelementptr inbounds [0 x %struct.NullableDatum], ptr %8, i64 0, i64 0
  %10 = getelementptr inbounds nuw %struct.NullableDatum, ptr %9, i32 0, i32 0
  %11 = load i64, ptr %10, align 8
  %12 = call ptr @DatumGetIntervalP(i64 noundef %11)
  store ptr %12, ptr %3, align 8
  call void @llvm.lifetime.start.p0(i64 8, ptr %4) #9
  %13 = load ptr, ptr %2, align 8
  %14 = getelementptr inbounds nuw %struct.FunctionCallInfoBaseData, ptr %13, i32 0, i32 6
  %15 = getelementptr inbounds [0 x %struct.NullableDatum], ptr %14, i64 0, i64 1
  %16 = getelementptr inbounds nuw %struct.NullableDatum, ptr %15, i32 0, i32 0
  %17 = load i64, ptr %16, align 8
  %18 = call ptr @DatumGetTimeTzADTP(i64 noundef %17)
  store ptr %18, ptr %4, align 8
  call void @llvm.lifetime.start.p0(i64 8, ptr %5) #9
  call void @llvm.lifetime.start.p0(i64 4, ptr %6) #9
  %19 = load ptr, ptr %3, align 8
  %20 = getelementptr inbounds nuw %struct.Interval, ptr %19, i32 0, i32 2
  %21 = load i32, ptr %20, align 4
  %22 = icmp eq i32 %21, -2147483648
  br i1 %22, label %23, label %33

23:                                               ; preds = %1
  %24 = load ptr, ptr %3, align 8
  %25 = getelementptr inbounds nuw %struct.Interval, ptr %24, i32 0, i32 1
  %26 = load i32, ptr %25, align 8
  %27 = icmp eq i32 %26, -2147483648
  br i1 %27, label %28, label %33

28:                                               ; preds = %23
  %29 = load ptr, ptr %3, align 8
  %30 = getelementptr inbounds nuw %struct.Interval, ptr %29, i32 0, i32 0
  %31 = load i64, ptr %30, align 8
  %32 = icmp eq i64 %31, -9223372036854775808
  br i1 %32, label %48, label %33

33:                                               ; preds = %28, %23, %1
  %34 = load ptr, ptr %3, align 8
  %35 = getelementptr inbounds nuw %struct.Interval, ptr %34, i32 0, i32 2
  %36 = load i32, ptr %35, align 4
  %37 = icmp eq i32 %36, 2147483647
  br i1 %37, label %38, label %64

38:                                               ; preds = %33
  %39 = load ptr, ptr %3, align 8
  %40 = getelementptr inbounds nuw %struct.Interval, ptr %39, i32 0, i32 1
  %41 = load i32, ptr %40, align 8
  %42 = icmp eq i32 %41, 2147483647
  br i1 %42, label %43, label %64

43:                                               ; preds = %38
  %44 = load ptr, ptr %3, align 8
  %45 = getelementptr inbounds nuw %struct.Interval, ptr %44, i32 0, i32 0
  %46 = load i64, ptr %45, align 8
  %47 = icmp eq i64 %46, 9223372036854775807
  br i1 %47, label %48, label %64

48:                                               ; preds = %43, %28
  br label %49

49:                                               ; preds = %48
  br i1 true, label %50, label %52

50:                                               ; preds = %49
  %51 = call zeroext i1 @errstart_cold(i32 noundef 21, ptr noundef null) #8
  br i1 %51, label %54, label %61

52:                                               ; preds = %49
  %53 = call zeroext i1 @errstart(i32 noundef 21, ptr noundef null)
  br i1 %53, label %54, label %61

54:                                               ; preds = %52, %50
  %55 = call i32 @errcode(i32 noundef 50856066)
  %56 = load ptr, ptr %3, align 8
  %57 = call i64 @PointerGetDatum(ptr noundef %56)
  %58 = call i64 @DirectFunctionCall1Coll(ptr noundef @interval_out, i32 noundef 0, i64 noundef %57)
  %59 = call ptr @DatumGetCString(i64 noundef %58)
  %60 = call i32 (ptr, ...) @errmsg(ptr noundef @.str.29, ptr noundef %59)
  call void @errfinish(ptr noundef @.str.3, i32 noundef 3153, ptr noundef @__func__.timetz_izone)
  br label %61

61:                                               ; preds = %54, %52, %50
  unreachable

62:                                               ; No predecessors!
  br label %63

63:                                               ; preds = %62
  br label %64

64:                                               ; preds = %63, %43, %38, %33
  %65 = load ptr, ptr %3, align 8
  %66 = getelementptr inbounds nuw %struct.Interval, ptr %65, i32 0, i32 2
  %67 = load i32, ptr %66, align 4
  %68 = icmp ne i32 %67, 0
  br i1 %68, label %74, label %69

69:                                               ; preds = %64
  %70 = load ptr, ptr %3, align 8
  %71 = getelementptr inbounds nuw %struct.Interval, ptr %70, i32 0, i32 1
  %72 = load i32, ptr %71, align 8
  %73 = icmp ne i32 %72, 0
  br i1 %73, label %74, label %90

74:                                               ; preds = %69, %64
  br label %75

75:                                               ; preds = %74
  br i1 true, label %76, label %78

76:                                               ; preds = %75
  %77 = call zeroext i1 @errstart_cold(i32 noundef 21, ptr noundef null) #8
  br i1 %77, label %80, label %87

78:                                               ; preds = %75
  %79 = call zeroext i1 @errstart(i32 noundef 21, ptr noundef null)
  br i1 %79, label %80, label %87

80:                                               ; preds = %78, %76
  %81 = call i32 @errcode(i32 noundef 50856066)
  %82 = load ptr, ptr %3, align 8
  %83 = call i64 @PointerGetDatum(ptr noundef %82)
  %84 = call i64 @DirectFunctionCall1Coll(ptr noundef @interval_out, i32 noundef 0, i64 noundef %83)
  %85 = call ptr @DatumGetCString(i64 noundef %84)
  %86 = call i32 (ptr, ...) @errmsg(ptr noundef @.str.30, ptr noundef %85)
  call void @errfinish(ptr noundef @.str.3, i32 noundef 3160, ptr noundef @__func__.timetz_izone)
  br label %87

87:                                               ; preds = %80, %78, %76
  unreachable

88:                                               ; No predecessors!
  br label %89

89:                                               ; preds = %88
  br label %90

90:                                               ; preds = %89, %69
  %91 = load ptr, ptr %3, align 8
  %92 = getelementptr inbounds nuw %struct.Interval, ptr %91, i32 0, i32 0
  %93 = load i64, ptr %92, align 8
  %94 = sdiv i64 %93, 1000000
  %95 = sub i64 0, %94
  %96 = trunc i64 %95 to i32
  store i32 %96, ptr %6, align 4
  %97 = call ptr @palloc(i64 noundef 16)
  store ptr %97, ptr %5, align 8
  %98 = load ptr, ptr %4, align 8
  %99 = getelementptr inbounds nuw %struct.TimeTzADT, ptr %98, i32 0, i32 0
  %100 = load i64, ptr %99, align 8
  %101 = load ptr, ptr %4, align 8
  %102 = getelementptr inbounds nuw %struct.TimeTzADT, ptr %101, i32 0, i32 1
  %103 = load i32, ptr %102, align 8
  %104 = load i32, ptr %6, align 4
  %105 = sub i32 %103, %104
  %106 = sext i32 %105 to i64
  %107 = mul i64 %106, 1000000
  %108 = add i64 %100, %107
  %109 = load ptr, ptr %5, align 8
  %110 = getelementptr inbounds nuw %struct.TimeTzADT, ptr %109, i32 0, i32 0
  store i64 %108, ptr %110, align 8
  br label %111

111:                                              ; preds = %116, %90
  %112 = load ptr, ptr %5, align 8
  %113 = getelementptr inbounds nuw %struct.TimeTzADT, ptr %112, i32 0, i32 0
  %114 = load i64, ptr %113, align 8
  %115 = icmp slt i64 %114, 0
  br i1 %115, label %116, label %121

116:                                              ; preds = %111
  %117 = load ptr, ptr %5, align 8
  %118 = getelementptr inbounds nuw %struct.TimeTzADT, ptr %117, i32 0, i32 0
  %119 = load i64, ptr %118, align 8
  %120 = add i64 %119, 86400000000
  store i64 %120, ptr %118, align 8
  br label %111, !llvm.loop !8

121:                                              ; preds = %111
  %122 = load ptr, ptr %5, align 8
  %123 = getelementptr inbounds nuw %struct.TimeTzADT, ptr %122, i32 0, i32 0
  %124 = load i64, ptr %123, align 8
  %125 = icmp sge i64 %124, 86400000000
  br i1 %125, label %126, label %131

126:                                              ; preds = %121
  %127 = load ptr, ptr %5, align 8
  %128 = getelementptr inbounds nuw %struct.TimeTzADT, ptr %127, i32 0, i32 0
  %129 = load i64, ptr %128, align 8
  %130 = srem i64 %129, 86400000000
  store i64 %130, ptr %128, align 8
  br label %131

131:                                              ; preds = %126, %121
  %132 = load i32, ptr %6, align 4
  %133 = load ptr, ptr %5, align 8
  %134 = getelementptr inbounds nuw %struct.TimeTzADT, ptr %133, i32 0, i32 1
  store i32 %132, ptr %134, align 8
  %135 = load ptr, ptr %5, align 8
  %136 = call i64 @TimeTzADTPGetDatum(ptr noundef %135)
  call void @llvm.lifetime.end.p0(i64 4, ptr %6) #9
  call void @llvm.lifetime.end.p0(i64 8, ptr %5) #9
  call void @llvm.lifetime.end.p0(i64 8, ptr %4) #9
  call void @llvm.lifetime.end.p0(i64 8, ptr %3) #9
  ret i64 %136
}