; Function Attrs: nounwind uwtable
define dso_local noundef i64 @timetz_izone(ptr noundef readonly captures(none) %0) local_unnamed_addr #0 {
  %2 = getelementptr inbounds nuw i8, ptr %0, i64 32
  %3 = load i64, ptr %2, align 8
  %4 = inttoptr i64 %3 to ptr
  %5 = getelementptr inbounds nuw i8, ptr %0, i64 48
  %6 = load i64, ptr %5, align 8
  %7 = getelementptr inbounds nuw i8, ptr %4, i64 12
  %8 = load i32, ptr %7, align 4
  switch i32 %8, label %.thread25 [
    i32 -2147483648, label %9
    i32 2147483647, label %16
    i32 0, label %29
  ]

9:                                                ; preds = %1
  %10 = getelementptr inbounds nuw i8, ptr %4, i64 8
  %11 = load i32, ptr %10, align 8
  %12 = icmp eq i32 %11, -2147483648
  br i1 %12, label %13, label %.thread25

13:                                               ; preds = %9
  %14 = load i64, ptr %4, align 8
  %15 = icmp eq i64 %14, -9223372036854775808
  br i1 %15, label %23, label %.thread25

16:                                               ; preds = %1
  %17 = getelementptr inbounds nuw i8, ptr %4, i64 8
  %18 = load i32, ptr %17, align 8
  %19 = icmp eq i32 %18, 2147483647
  br i1 %19, label %20, label %.thread25

20:                                               ; preds = %16
  %21 = load i64, ptr %4, align 8
  %22 = icmp eq i64 %21, 9223372036854775807
  br i1 %22, label %23, label %.thread25

23:                                               ; preds = %20, %13
  %24 = tail call zeroext i1 @errstart_cold(i32 noundef 21, ptr noundef null) #15
  tail call void @llvm.assume(i1 %24)
  %25 = tail call i32 @errcode(i32 noundef 50856066) #16
  %26 = tail call i64 @DirectFunctionCall1Coll(ptr noundef nonnull @interval_out, i32 noundef 0, i64 noundef %3) #16
  %27 = inttoptr i64 %26 to ptr
  %28 = tail call i32 (ptr, ...) @errmsg(ptr noundef nonnull @.str.29, ptr noundef %27) #16
  tail call void @errfinish(ptr noundef nonnull @.str.3, i32 noundef 3153, ptr noundef nonnull @__func__.timetz_izone) #16
  unreachable

29:                                               ; preds = %1
  %30 = getelementptr inbounds nuw i8, ptr %4, i64 8
  %31 = load i32, ptr %30, align 8
  %.not23 = icmp eq i32 %31, 0
  br i1 %.not23, label %37, label %.thread25

.thread25:                                        ; preds = %1, %9, %13, %16, %20, %29
  %32 = tail call zeroext i1 @errstart_cold(i32 noundef 21, ptr noundef null) #15
  tail call void @llvm.assume(i1 %32)
  %33 = tail call i32 @errcode(i32 noundef 50856066) #16
  %34 = tail call i64 @DirectFunctionCall1Coll(ptr noundef nonnull @interval_out, i32 noundef 0, i64 noundef %3) #16
  %35 = inttoptr i64 %34 to ptr
  %36 = tail call i32 (ptr, ...) @errmsg(ptr noundef nonnull @.str.30, ptr noundef %35) #16
  tail call void @errfinish(ptr noundef nonnull @.str.3, i32 noundef 3160, ptr noundef nonnull @__func__.timetz_izone) #16
  unreachable

37:                                               ; preds = %29
  %38 = inttoptr i64 %6 to ptr
  %39 = load i64, ptr %4, align 8
  %.neg = sdiv i64 %39, -1000000
  %40 = trunc i64 %.neg to i32
  %41 = tail call ptr @palloc(i64 noundef 16) #16
  %42 = load i64, ptr %38, align 8
  %43 = getelementptr inbounds nuw i8, ptr %38, i64 8
  %44 = load i32, ptr %43, align 8
  %45 = sub i32 %44, %40
  %46 = sext i32 %45 to i64
  %47 = mul nsw i64 %46, 1000000
  %48 = add i64 %47, %42
  %smax = tail call i64 @llvm.smax.i64(i64 %48, i64 0)
  %49 = sub i64 %smax, %42
  %50 = icmp ne i64 %49, %47
  %umin = zext i1 %50 to i64
  %51 = or disjoint i64 %47, %umin
  %52 = sub i64 %49, %51
  %53 = udiv i64 %52, 86400000000
  %54 = add nuw nsw i64 %53, %umin
  %55 = mul i64 %54, 86400000000
  %56 = add i64 %42, %55
  %57 = add i64 %56, %47
  %58 = icmp samesign ugt i64 %57, 86399999999
  %59 = urem i64 %57, 86400000000
  %storemerge28 = select i1 %58, i64 %59, i64 %57
  store i64 %storemerge28, ptr %41, align 8
  %60 = getelementptr inbounds nuw i8, ptr %41, i64 8
  store i32 %40, ptr %60, align 8
  %61 = ptrtoint ptr %41 to i64
  ret i64 %61
}